target datalayout = "e-m:e-p270:32:32-p271:32:32-p272:64:64-i64:64-i128:128-f80:128-n8:16:32:64-S128"
target triple = "x86_64-pc-linux-gnu"

@_ZN10NMTPreInit6_tableE = hidden global ptr null, align 8
@_ZN25NMTPreInitAllocationTableD1Ev = hidden unnamed_addr alias void (ptr), ptr @_ZN25NMTPreInitAllocationTableD2Ev

; Function Attrs: mustprogress nounwind uwtable
define internal void @_ZL8raw_freePv(ptr noundef %0) #1 {
  %2 = alloca ptr, align 8
  store ptr %0, ptr %2, align 8
  %3 = load ptr, ptr %2, align 8
  call void @free(ptr noundef %3) #9
  ret void
}

; Function Attrs: mustprogress nounwind uwtable
define hidden void @_ZN25NMTPreInitAllocationTabledlEPv(ptr noundef %0) #1 align 2 {
  %2 = alloca ptr, align 8
  store ptr %0, ptr %2, align 8
  %3 = load ptr, ptr %2, align 8
  call void @_ZL8raw_freePv(ptr noundef %3)
  ret void
}

; Function Attrs: mustprogress nounwind uwtable
define hidden void @_ZN10NMTPreInit11pre_to_postEb(i1 noundef zeroext %0) #1 align 2 {
  %2 = alloca i8, align 1
  %3 = zext i1 %0 to i8
  store i8 %3, ptr %2, align 1
  %4 = load i8, ptr %2, align 1
  %5 = trunc i8 %4 to i1
  br i1 %5, label %6, label %11

6:                                                ; preds = %1
  %7 = load ptr, ptr @_ZN10NMTPreInit6_tableE, align 8
  %8 = icmp eq ptr %7, null
  br i1 %8, label %10, label %9

9:                                                ; preds = %6
  call void @_ZN25NMTPreInitAllocationTableD1Ev(ptr noundef nonnull align 8 dereferenceable(65532) %7) #9
  call void @_ZN25NMTPreInitAllocationTabledlEPv(ptr noundef %7) #9
  br label %10

10:                                               ; preds = %9, %6
  store ptr null, ptr @_ZN10NMTPreInit6_tableE, align 8
  br label %11

11:                                               ; preds = %10, %1
  ret void
}