; Function Attrs: mustprogress nounwind uwtable
define hidden void @_ZN10NMTPreInit11pre_to_postEb(i1 noundef zeroext %0) local_unnamed_addr #0 align 2 {
  br i1 %0, label %2, label %9

2:                                                ; preds = %1
  %3 = load ptr, ptr @_ZN10NMTPreInit6_tableE, align 8
  %4 = icmp eq ptr %3, null
  br i1 %4, label %8, label %.preheader

.preheader:                                       ; preds = %2, %._crit_edge.i
  %indvars.iv.i = phi i64 [ %indvars.iv.next.i, %._crit_edge.i ], [ 0, %2 ]
  %5 = getelementptr inbounds [8191 x ptr], ptr %3, i64 0, i64 %indvars.iv.i
  %6 = load ptr, ptr %5, align 8
  %.not8.i = icmp eq ptr %6, null
  br i1 %.not8.i, label %._crit_edge.i, label %.lr.ph.i

.lr.ph.i:                                         ; preds = %.preheader, %.lr.ph.i
  %.079.i = phi ptr [ %7, %.lr.ph.i ], [ %6, %.preheader ]
  %7 = load ptr, ptr %.079.i, align 8
  tail call void @free(ptr noundef nonnull %.079.i) #13
  %.not.i = icmp eq ptr %7, null
  br i1 %.not.i, label %._crit_edge.i, label %.lr.ph.i, !llvm.loop !6

._crit_edge.i:                                    ; preds = %.lr.ph.i, %.preheader
  %indvars.iv.next.i = add nuw nsw i64 %indvars.iv.i, 1
  %exitcond.not.i = icmp eq i64 %indvars.iv.next.i, 8191
  br i1 %exitcond.not.i, label %_ZN25NMTPreInitAllocationTableD2Ev.exit, label %.preheader, !llvm.loop !8

_ZN25NMTPreInitAllocationTableD2Ev.exit:          ; preds = %._crit_edge.i
  tail call void @free(ptr noundef %3) #13
  br label %8

8:                                                ; preds = %_ZN25NMTPreInitAllocationTableD2Ev.exit, %2
  store ptr null, ptr @_ZN10NMTPreInit6_tableE, align 8
  br label %9

9:                                                ; preds = %8, %1
  ret void
}